; ModuleID = '24/47.c'
source_filename = "24/47.c"
target datalayout = "e-m:e-p270:32:32-p271:32:32-p272:64:64-i64:64-f80:128-n8:16:32:64-S128"
target triple = "x86_64-pc-linux-gnu"

%struct._IO_FILE = type { i32, i8*, i8*, i8*, i8*, i8*, i8*, i8*, i8*, i8*, i8*, i8*, %struct._IO_marker*, %struct._IO_FILE*, i32, i32, i64, i16, i8, [1 x i8], i8*, i64, %struct._IO_codecvt*, %struct._IO_wide_data*, %struct._IO_FILE*, i8*, i64, i32, [20 x i8] }
%struct._IO_marker = type opaque
%struct._IO_codecvt = type opaque
%struct._IO_wide_data = type opaque

@stdin = external dso_local global %struct._IO_FILE*, align 8
@.str = private unnamed_addr constant [3 x i8] c"%s\00", align 1
@.str.1 = private unnamed_addr constant [4 x i8] c"%s\0A\00", align 1

; Function Attrs: noinline nounwind uwtable
define dso_local i32 @main() #0 {
  %1 = alloca i32, align 4
  %2 = alloca i32, align 4
  %3 = alloca i32, align 4
  %4 = alloca i32, align 4
  %5 = alloca i32, align 4
  %6 = alloca i32, align 4
  %7 = alloca [50 x i32], align 16
  %8 = alloca i32, align 4
  %9 = alloca i32, align 4
  %10 = alloca [50 x [40 x i8]], align 16
  %11 = alloca [40 x i8]*, align 8
  %12 = alloca i32*, align 8
  store i32 0, i32* %1, align 4
  store i32 0, i32* %2, align 4
  store i32 0, i32* %5, align 4
  store i32 40, i32* %6, align 4
  %13 = getelementptr inbounds [50 x [40 x i8]], [50 x [40 x i8]]* %10, i64 0, i64 0
  store [40 x i8]* %13, [40 x i8]** %11, align 8
  %14 = getelementptr inbounds [50 x i32], [50 x i32]* %7, i64 0, i64 0
  store i32* %14, i32** %12, align 8
  br label %15

15:                                               ; preds = %20, %0
  %16 = load %struct._IO_FILE*, %struct._IO_FILE** @stdin, align 8
  %17 = call i32 @feof(%struct._IO_FILE* %16) #4
  %18 = icmp ne i32 %17, 0
  %19 = xor i1 %18, true
  br i1 %19, label %20, label %28

20:                                               ; preds = %15
  %21 = load [40 x i8]*, [40 x i8]** %11, align 8
  %22 = load i32, i32* %2, align 4
  %23 = add nsw i32 %22, 1
  store i32 %23, i32* %2, align 4
  %24 = sext i32 %22 to i64
  %25 = getelementptr inbounds [40 x i8], [40 x i8]* %21, i64 %24
  %26 = getelementptr inbounds [40 x i8], [40 x i8]* %25, i64 0, i64 0
  %27 = call i32 (i8*, ...) @__isoc99_scanf(i8* getelementptr inbounds ([3 x i8], [3 x i8]* @.str, i64 0, i64 0), i8* %26)
  br label %15

28:                                               ; preds = %15
  %29 = load i32, i32* %2, align 4
  %30 = sub nsw i32 %29, 2
  store i32 %30, i32* %3, align 4
  br label %31

31:                                               ; preds = %45, %28
  %32 = load i32, i32* %3, align 4
  %33 = icmp sge i32 %32, 0
  br i1 %33, label %34, label %48

34:                                               ; preds = %31
  %35 = load i32, i32* %3, align 4
  %36 = sext i32 %35 to i64
  %37 = getelementptr inbounds [50 x [40 x i8]], [50 x [40 x i8]]* %10, i64 0, i64 %36
  %38 = getelementptr inbounds [40 x i8], [40 x i8]* %37, i64 0, i64 0
  %39 = call i64 @strlen(i8* %38) #5
  %40 = trunc i64 %39 to i32
  %41 = load i32*, i32** %12, align 8
  %42 = load i32, i32* %3, align 4
  %43 = sext i32 %42 to i64
  %44 = getelementptr inbounds i32, i32* %41, i64 %43
  store i32 %40, i32* %44, align 4
  br label %45

45:                                               ; preds = %34
  %46 = load i32, i32* %3, align 4
  %47 = add nsw i32 %46, -1
  store i32 %47, i32* %3, align 4
  br label %31

48:                                               ; preds = %31
  store i32 0, i32* %3, align 4
  br label %49

49:                                               ; preds = %85, %48
  %50 = load i32, i32* %3, align 4
  %51 = load i32, i32* %2, align 4
  %52 = sub nsw i32 %51, 2
  %53 = icmp sle i32 %50, %52
  br i1 %53, label %54, label %88

54:                                               ; preds = %49
  %55 = load i32, i32* %5, align 4
  %56 = load i32*, i32** %12, align 8
  %57 = load i32, i32* %3, align 4
  %58 = sext i32 %57 to i64
  %59 = getelementptr inbounds i32, i32* %56, i64 %58
  %60 = load i32, i32* %59, align 4
  %61 = icmp slt i32 %55, %60
  br i1 %61, label %62, label %69

62:                                               ; preds = %54
  %63 = load i32*, i32** %12, align 8
  %64 = load i32, i32* %3, align 4
  %65 = sext i32 %64 to i64
  %66 = getelementptr inbounds i32, i32* %63, i64 %65
  %67 = load i32, i32* %66, align 4
  store i32 %67, i32* %5, align 4
  %68 = load i32, i32* %3, align 4
  store i32 %68, i32* %8, align 4
  br label %69

69:                                               ; preds = %62, %54
  %70 = load i32, i32* %6, align 4
  %71 = load i32*, i32** %12, align 8
  %72 = load i32, i32* %3, align 4
  %73 = sext i32 %72 to i64
  %74 = getelementptr inbounds i32, i32* %71, i64 %73
  %75 = load i32, i32* %74, align 4
  %76 = icmp sgt i32 %70, %75
  br i1 %76, label %77, label %84

77:                                               ; preds = %69
  %78 = load i32*, i32** %12, align 8
  %79 = load i32, i32* %3, align 4
  %80 = sext i32 %79 to i64
  %81 = getelementptr inbounds i32, i32* %78, i64 %80
  %82 = load i32, i32* %81, align 4
  store i32 %82, i32* %6, align 4
  %83 = load i32, i32* %3, align 4
  store i32 %83, i32* %9, align 4
  br label %84

84:                                               ; preds = %77, %69
  br label %85

85:                                               ; preds = %84
  %86 = load i32, i32* %3, align 4
  %87 = add nsw i32 %86, 1
  store i32 %87, i32* %3, align 4
  br label %49

88:                                               ; preds = %49
  %89 = load [40 x i8]*, [40 x i8]** %11, align 8
  %90 = load i32, i32* %8, align 4
  %91 = sext i32 %90 to i64
  %92 = getelementptr inbounds [40 x i8], [40 x i8]* %89, i64 %91
  %93 = getelementptr inbounds [40 x i8], [40 x i8]* %92, i64 0, i64 0
  %94 = call i32 (i8*, ...) @printf(i8* getelementptr inbounds ([4 x i8], [4 x i8]* @.str.1, i64 0, i64 0), i8* %93)
  %95 = load [40 x i8]*, [40 x i8]** %11, align 8
  %96 = load i32, i32* %9, align 4
  %97 = sext i32 %96 to i64
  %98 = getelementptr inbounds [40 x i8], [40 x i8]* %95, i64 %97
  %99 = getelementptr inbounds [40 x i8], [40 x i8]* %98, i64 0, i64 0
  %100 = call i32 (i8*, ...) @printf(i8* getelementptr inbounds ([3 x i8], [3 x i8]* @.str, i64 0, i64 0), i8* %99)
  %101 = load i32, i32* %1, align 4
  ret i32 %101
}

; Function Attrs: nounwind
declare dso_local i32 @feof(%struct._IO_FILE*) #1

declare dso_local i32 @__isoc99_scanf(i8*, ...) #2

; Function Attrs: nounwind readonly
declare dso_local i64 @strlen(i8*) #3

declare dso_local i32 @printf(i8*, ...) #2


!llvm.module.flags = !{!0}
!llvm.ident = !{!1}

!0 = !{i32 1, !"wchar_size", i32 4}
!1 = !{!"clang version 10.0.0-4ubuntu1 "}
